target datalayout = "e-m:e-p270:32:32-p271:32:32-p272:64:64-i64:64-i128:128-f80:128-n8:16:32:64-S128"
target triple = "x86_64-pc-linux-gnu"

%"struct.Luau::CodeGen::X64::RegisterX64" = type { i8 }
%"class.Luau::CodeGen::X64::AssemblyBuilderX64" = type <{ %"class.std::vector", %"class.std::vector", %"class.std::__cxx11::basic_string", i8, [3 x i8], i32, i32, [4 x i8], %"class.std::vector.3", %"class.std::vector.8", %"class.Luau::DenseHashMap", %"class.Luau::DenseHashMap.13", i8, [7 x i8], i64, ptr, ptr, i32, [4 x i8] }>
%"class.std::vector" = type { %"struct.std::_Vector_base" }
%"struct.std::_Vector_base" = type { %"struct.std::_Vector_base<unsigned char, std::allocator<unsigned char>>::_Vector_impl" }
%"struct.std::_Vector_base<unsigned char, std::allocator<unsigned char>>::_Vector_impl" = type { %"struct.std::_Vector_base<unsigned char, std::allocator<unsigned char>>::_Vector_impl_data" }
%"struct.std::_Vector_base<unsigned char, std::allocator<unsigned char>>::_Vector_impl_data" = type { ptr, ptr, ptr }
%"class.std::__cxx11::basic_string" = type { %"struct.std::__cxx11::basic_string<char>::_Alloc_hider", i64, %union.anon }
%"struct.std::__cxx11::basic_string<char>::_Alloc_hider" = type { ptr }
%union.anon = type { i64, [8 x i8] }
%"class.std::vector.3" = type { %"struct.std::_Vector_base.4" }
%"struct.std::_Vector_base.4" = type { %"struct.std::_Vector_base<Luau::CodeGen::Label, std::allocator<Luau::CodeGen::Label>>::_Vector_impl" }
%"struct.std::_Vector_base<Luau::CodeGen::Label, std::allocator<Luau::CodeGen::Label>>::_Vector_impl" = type { %"struct.std::_Vector_base<Luau::CodeGen::Label, std::allocator<Luau::CodeGen::Label>>::_Vector_impl_data" }
%"struct.std::_Vector_base<Luau::CodeGen::Label, std::allocator<Luau::CodeGen::Label>>::_Vector_impl_data" = type { ptr, ptr, ptr }
%"class.std::vector.8" = type { %"struct.std::_Vector_base.9" }
%"struct.std::_Vector_base.9" = type { %"struct.std::_Vector_base<unsigned int, std::allocator<unsigned int>>::_Vector_impl" }
%"struct.std::_Vector_base<unsigned int, std::allocator<unsigned int>>::_Vector_impl" = type { %"struct.std::_Vector_base<unsigned int, std::allocator<unsigned int>>::_Vector_impl_data" }
%"struct.std::_Vector_base<unsigned int, std::allocator<unsigned int>>::_Vector_impl_data" = type { ptr, ptr, ptr }
%"class.Luau::DenseHashMap" = type { %"class.Luau::detail::DenseHashTable" }
%"class.Luau::detail::DenseHashTable" = type <{ ptr, i64, i64, i32, [4 x i8] }>
%"class.Luau::DenseHashMap.13" = type { %"class.Luau::detail::DenseHashTable.14" }
%"class.Luau::detail::DenseHashTable.14" = type <{ ptr, i64, i64, i64, [8 x i8] }>
%"struct.Luau::CodeGen::X64::OperandX64" = type { i8, %"struct.Luau::CodeGen::X64::RegisterX64", %"struct.Luau::CodeGen::X64::RegisterX64", i8, i32 }

@.str.20 = private unnamed_addr constant [5 x i8] c"imul\00", align 1
@_ZN4Luau7CodeGen3X64L5noregE = internal constant %"struct.Luau::CodeGen::X64::RegisterX64" { i8 -128 }, align 1

; Function Attrs: inlinehint mustprogress nounwind uwtable
define linkonce_odr dso_local noundef ptr @_Z8writeu32Phj(ptr noundef %0, i32 noundef %1) #3 comdat {
  %3 = alloca ptr, align 8
  %4 = alloca i32, align 4
  store ptr %0, ptr %3, align 8, !tbaa !80
  store i32 %1, ptr %4, align 4, !tbaa !48
  %5 = load ptr, ptr %3, align 8, !tbaa !80
  call void @llvm.memcpy.p0.p0.i64(ptr align 1 %5, ptr align 4 %4, i64 4, i1 false)
  %6 = load ptr, ptr %3, align 8, !tbaa !80
  %7 = getelementptr inbounds nuw i8, ptr %6, i64 4
  ret ptr %7
}

; Function Attrs: mustprogress uwtable
define dso_local void @_ZN4Luau7CodeGen3X6418AssemblyBuilderX646commitEv(ptr noundef nonnull align 8 dereferenceable(252) %0) #0 align 2 {
  %2 = alloca ptr, align 8
  store ptr %0, ptr %2, align 8, !tbaa !4
  %3 = load ptr, ptr %2, align 8
  %4 = getelementptr inbounds nuw %"class.Luau::CodeGen::X64::AssemblyBuilderX64", ptr %3, i32 0, i32 17
  %5 = load i32, ptr %4, align 8, !tbaa !54
  %6 = add i32 %5, 1
  store i32 %6, ptr %4, align 8, !tbaa !54
  %7 = getelementptr inbounds nuw %"class.Luau::CodeGen::X64::AssemblyBuilderX64", ptr %3, i32 0, i32 16
  %8 = load ptr, ptr %7, align 8, !tbaa !53
  %9 = getelementptr inbounds nuw %"class.Luau::CodeGen::X64::AssemblyBuilderX64", ptr %3, i32 0, i32 15
  %10 = load ptr, ptr %9, align 8, !tbaa !52
  %11 = ptrtoint ptr %8 to i64
  %12 = ptrtoint ptr %10 to i64
  %13 = sub i64 %11, %12
  %14 = trunc i64 %13 to i32
  %15 = icmp ult i32 %14, 16
  br i1 %15, label %16, label %17

16:                                               ; preds = %1
  call void @_ZN4Luau7CodeGen3X6418AssemblyBuilderX646extendEv(ptr noundef nonnull align 8 dereferenceable(252) %3)
  br label %17

17:                                               ; preds = %16, %1
  ret void
}

; Function Attrs: mustprogress uwtable
define dso_local void @_ZN4Luau7CodeGen3X6418AssemblyBuilderX6410placeImm32Ei(ptr noundef nonnull align 8 dereferenceable(252) %0, i32 noundef %1) #0 align 2 {
  %3 = alloca ptr, align 8
  %4 = alloca i32, align 4
  %5 = alloca ptr, align 8
  store ptr %0, ptr %3, align 8, !tbaa !4
  store i32 %1, ptr %4, align 4, !tbaa !48
  %6 = load ptr, ptr %3, align 8
  call void @llvm.lifetime.start.p0(i64 8, ptr %5) #17
  %7 = getelementptr inbounds nuw %"class.Luau::CodeGen::X64::AssemblyBuilderX64", ptr %6, i32 0, i32 15
  %8 = load ptr, ptr %7, align 8, !tbaa !52
  store ptr %8, ptr %5, align 8, !tbaa !80
  %9 = load ptr, ptr %5, align 8, !tbaa !80
  %10 = load i32, ptr %4, align 4, !tbaa !48
  %11 = call noundef ptr @_Z8writeu32Phj(ptr noundef %9, i32 noundef %10)
  %12 = getelementptr inbounds nuw %"class.Luau::CodeGen::X64::AssemblyBuilderX64", ptr %6, i32 0, i32 15
  store ptr %11, ptr %12, align 8, !tbaa !52
  call void @llvm.lifetime.end.p0(i64 8, ptr %5) #17
  ret void
}

; Function Attrs: mustprogress uwtable
define dso_local void @_ZN4Luau7CodeGen3X6418AssemblyBuilderX649placeImm8Ei(ptr noundef nonnull align 8 dereferenceable(252) %0, i32 noundef %1) #0 align 2 {
  %3 = alloca ptr, align 8
  %4 = alloca i32, align 4
  %5 = alloca i8, align 1
  store ptr %0, ptr %3, align 8, !tbaa !4
  store i32 %1, ptr %4, align 4, !tbaa !48
  %6 = load ptr, ptr %3, align 8
  call void @llvm.lifetime.start.p0(i64 1, ptr %5) #17
  %7 = load i32, ptr %4, align 4, !tbaa !48
  %8 = trunc i32 %7 to i8
  store i8 %8, ptr %5, align 1, !tbaa !79
  %9 = load i8, ptr %5, align 1, !tbaa !79
  call void @_ZN4Luau7CodeGen3X6418AssemblyBuilderX645placeEh(ptr noundef nonnull align 8 dereferenceable(252) %6, i8 noundef zeroext %9)
  call void @llvm.lifetime.end.p0(i64 1, ptr %5) #17
  ret void
}

; Function Attrs: mustprogress uwtable
define dso_local void @_ZN4Luau7CodeGen3X6418AssemblyBuilderX6420placeRegAndModRegMemENS1_10OperandX64ES3_i(ptr noundef nonnull align 8 dereferenceable(252) %0, i64 %1, i64 %2, i32 noundef %3) #0 align 2 {
  %5 = alloca %"struct.Luau::CodeGen::X64::OperandX64", align 4
  %6 = alloca %"struct.Luau::CodeGen::X64::OperandX64", align 4
  %7 = alloca ptr, align 8
  %8 = alloca i32, align 4
  %9 = alloca %"struct.Luau::CodeGen::X64::OperandX64", align 4
  store i64 %1, ptr %5, align 4
  store i64 %2, ptr %6, align 4
  store ptr %0, ptr %7, align 8, !tbaa !4
  store i32 %3, ptr %8, align 4, !tbaa !48
  %10 = load ptr, ptr %7, align 8
  call void @llvm.memcpy.p0.p0.i64(ptr align 4 %9, ptr align 4 %6, i64 8, i1 false), !tbaa.struct !76
  %11 = getelementptr inbounds nuw %"struct.Luau::CodeGen::X64::OperandX64", ptr %5, i32 0, i32 2
  %12 = load i8, ptr %11, align 2
  %13 = lshr i8 %12, 3
  %14 = load i32, ptr %8, align 4, !tbaa !48
  %15 = load i64, ptr %9, align 4
  call void @_ZN4Luau7CodeGen3X6418AssemblyBuilderX6414placeModRegMemENS1_10OperandX64Ehi(ptr noundef nonnull align 8 dereferenceable(252) %10, i64 %15, i8 noundef zeroext %13, i32 noundef %14)
  ret void
}

; Function Attrs: mustprogress nounwind uwtable
define dso_local void @_ZN4Luau7CodeGen3X6418AssemblyBuilderX645placeEh(ptr noundef nonnull align 8 dereferenceable(252) %0, i8 noundef zeroext %1) #1 align 2 {
  %3 = alloca ptr, align 8
  %4 = alloca i8, align 1
  store ptr %0, ptr %3, align 8, !tbaa !4
  store i8 %1, ptr %4, align 1, !tbaa !79
  %5 = load ptr, ptr %3, align 8
  %6 = load i8, ptr %4, align 1, !tbaa !79
  %7 = getelementptr inbounds nuw %"class.Luau::CodeGen::X64::AssemblyBuilderX64", ptr %5, i32 0, i32 15
  %8 = load ptr, ptr %7, align 8, !tbaa !52
  %9 = getelementptr inbounds nuw i8, ptr %8, i32 1
  store ptr %9, ptr %7, align 8, !tbaa !52
  store i8 %6, ptr %8, align 1, !tbaa !79
  ret void
}

; Function Attrs: mustprogress uwtable
define dso_local void @_ZN4Luau7CodeGen3X6418AssemblyBuilderX648placeRexENS1_11RegisterX64ENS1_10OperandX64E(ptr noundef nonnull align 8 dereferenceable(252) %0, i8 %1, i64 %2) #0 align 2 {
  %4 = alloca %"struct.Luau::CodeGen::X64::RegisterX64", align 1
  %5 = alloca %"struct.Luau::CodeGen::X64::OperandX64", align 4
  %6 = alloca ptr, align 8
  %7 = alloca i8, align 1
  %8 = getelementptr inbounds nuw %"struct.Luau::CodeGen::X64::RegisterX64", ptr %4, i32 0, i32 0
  store i8 %1, ptr %8, align 1
  store i64 %2, ptr %5, align 4
  store ptr %0, ptr %6, align 8, !tbaa !4
  %9 = load ptr, ptr %6, align 8
  call void @llvm.lifetime.start.p0(i64 1, ptr %7) #17
  %10 = load i8, ptr %4, align 1
  %11 = and i8 %10, 7
  %12 = icmp eq i8 %11, 4
  br i1 %12, label %24, label %13

13:                                               ; preds = %3
  %14 = load i8, ptr %4, align 1
  %15 = and i8 %14, 7
  %16 = icmp eq i8 %15, 1
  br i1 %16, label %17, label %22

17:                                               ; preds = %13
  %18 = load i8, ptr %4, align 1
  %19 = lshr i8 %18, 3
  %20 = zext i8 %19 to i32
  %21 = icmp sge i32 %20, 4
  br label %22

22:                                               ; preds = %17, %13
  %23 = phi i1 [ false, %13 ], [ %21, %17 ]
  br label %24

24:                                               ; preds = %22, %3
  %25 = phi i1 [ true, %3 ], [ %23, %22 ]
  %26 = select i1 %25, i32 8, i32 0
  %27 = trunc i32 %26 to i8
  store i8 %27, ptr %7, align 1, !tbaa !79
  %28 = getelementptr inbounds nuw %"struct.Luau::CodeGen::X64::OperandX64", ptr %5, i32 0, i32 0
  %29 = load i8, ptr %28, align 4, !tbaa !81
  %30 = icmp eq i8 %29, 2
  br i1 %30, label %31, label %41

31:                                               ; preds = %24
  %32 = load i8, ptr %4, align 1
  %33 = lshr i8 %32, 3
  %34 = zext i8 %33 to i32
  %35 = and i32 %34, 8
  %36 = ashr i32 %35, 3
  %37 = load i8, ptr %7, align 1, !tbaa !79
  %38 = zext i8 %37 to i32
  %39 = or i32 %38, %36
  %40 = trunc i32 %39 to i8
  store i8 %40, ptr %7, align 1, !tbaa !79
  br label %65

41:                                               ; preds = %24
  %42 = load i8, ptr %4, align 1
  %43 = lshr i8 %42, 3
  %44 = zext i8 %43 to i32
  %45 = and i32 %44, 8
  %46 = ashr i32 %45, 1
  %47 = getelementptr inbounds nuw %"struct.Luau::CodeGen::X64::OperandX64", ptr %5, i32 0, i32 1
  %48 = load i8, ptr %47, align 1
  %49 = lshr i8 %48, 3
  %50 = zext i8 %49 to i32
  %51 = and i32 %50, 8
  %52 = ashr i32 %51, 2
  %53 = or i32 %46, %52
  %54 = getelementptr inbounds nuw %"struct.Luau::CodeGen::X64::OperandX64", ptr %5, i32 0, i32 2
  %55 = load i8, ptr %54, align 2
  %56 = lshr i8 %55, 3
  %57 = zext i8 %56 to i32
  %58 = and i32 %57, 8
  %59 = ashr i32 %58, 3
  %60 = or i32 %53, %59
  %61 = load i8, ptr %7, align 1, !tbaa !79
  %62 = zext i8 %61 to i32
  %63 = or i32 %62, %60
  %64 = trunc i32 %63 to i8
  store i8 %64, ptr %7, align 1, !tbaa !79
  br label %65

65:                                               ; preds = %41, %31
  %66 = load i8, ptr %7, align 1, !tbaa !79
  %67 = zext i8 %66 to i32
  %68 = icmp ne i32 %67, 0
  br i1 %68, label %69, label %74

69:                                               ; preds = %65
  %70 = load i8, ptr %7, align 1, !tbaa !79
  %71 = zext i8 %70 to i32
  %72 = or i32 %71, 64
  %73 = trunc i32 %72 to i8
  call void @_ZN4Luau7CodeGen3X6418AssemblyBuilderX645placeEh(ptr noundef nonnull align 8 dereferenceable(252) %9, i8 noundef zeroext %73)
  br label %74

74:                                               ; preds = %69, %65
  call void @llvm.lifetime.end.p0(i64 1, ptr %7) #17
  ret void
}

; Function Attrs: mustprogress nounwind uwtable
define linkonce_odr dso_local void @_ZN4Luau7CodeGen3X6410OperandX64C2Ei(ptr noundef nonnull align 4 dereferenceable(8) %0, i32 noundef %1) unnamed_addr #1 comdat align 2 {
  %3 = alloca ptr, align 8
  %4 = alloca i32, align 4
  store ptr %0, ptr %3, align 8, !tbaa !90
  store i32 %1, ptr %4, align 4, !tbaa !48
  %5 = load ptr, ptr %3, align 8
  %6 = getelementptr inbounds nuw %"struct.Luau::CodeGen::X64::OperandX64", ptr %5, i32 0, i32 0
  store i8 2, ptr %6, align 4, !tbaa !81
  %7 = getelementptr inbounds nuw %"struct.Luau::CodeGen::X64::OperandX64", ptr %5, i32 0, i32 1
  call void @llvm.memcpy.p0.p0.i64(ptr align 1 %7, ptr align 1 @_ZN4Luau7CodeGen3X64L5noregE, i64 1, i1 false), !tbaa.struct !86
  %8 = getelementptr inbounds nuw %"struct.Luau::CodeGen::X64::OperandX64", ptr %5, i32 0, i32 2
  call void @llvm.memcpy.p0.p0.i64(ptr align 2 %8, ptr align 1 @_ZN4Luau7CodeGen3X64L5noregE, i64 1, i1 false), !tbaa.struct !86
  %9 = getelementptr inbounds nuw %"struct.Luau::CodeGen::X64::OperandX64", ptr %5, i32 0, i32 3
  %10 = load i8, ptr %9, align 1
  %11 = and i8 %10, -16
  %12 = or i8 %11, 0
  store i8 %12, ptr %9, align 1
  %13 = getelementptr inbounds nuw %"struct.Luau::CodeGen::X64::OperandX64", ptr %5, i32 0, i32 3
  %14 = load i8, ptr %13, align 1
  %15 = and i8 %14, 15
  %16 = or i8 %15, 16
  store i8 %16, ptr %13, align 1
  %17 = getelementptr inbounds nuw %"struct.Luau::CodeGen::X64::OperandX64", ptr %5, i32 0, i32 4
  %18 = load i32, ptr %4, align 4, !tbaa !48
  store i32 %18, ptr %17, align 4, !tbaa !87
  ret void
}

; Function Attrs: mustprogress uwtable
define dso_local void @_ZN4Luau7CodeGen3X6418AssemblyBuilderX644imulENS1_10OperandX64ES3_i(ptr noundef nonnull align 8 dereferenceable(252) %0, i64 %1, i64 %2, i32 noundef %3) #0 align 2 {
  %5 = alloca %"struct.Luau::CodeGen::X64::OperandX64", align 4
  %6 = alloca %"struct.Luau::CodeGen::X64::OperandX64", align 4
  %7 = alloca ptr, align 8
  %8 = alloca i32, align 4
  %9 = alloca %"struct.Luau::CodeGen::X64::OperandX64", align 4
  %10 = alloca %"struct.Luau::CodeGen::X64::OperandX64", align 4
  %11 = alloca %"struct.Luau::CodeGen::X64::OperandX64", align 4
  %12 = alloca %"struct.Luau::CodeGen::X64::RegisterX64", align 1
  %13 = alloca %"struct.Luau::CodeGen::X64::OperandX64", align 4
  %14 = alloca %"struct.Luau::CodeGen::X64::OperandX64", align 4
  %15 = alloca %"struct.Luau::CodeGen::X64::OperandX64", align 4
  %16 = alloca %"struct.Luau::CodeGen::X64::OperandX64", align 4
  %17 = alloca %"struct.Luau::CodeGen::X64::OperandX64", align 4
  store i64 %1, ptr %5, align 4
  store i64 %2, ptr %6, align 4
  store ptr %0, ptr %7, align 8, !tbaa !4
  store i32 %3, ptr %8, align 4, !tbaa !48
  %18 = load ptr, ptr %7, align 8
  %19 = getelementptr inbounds nuw %"class.Luau::CodeGen::X64::AssemblyBuilderX64", ptr %18, i32 0, i32 3
  %20 = load i8, ptr %19, align 8, !tbaa !15, !range !13, !noundef !14
  %21 = trunc i8 %20 to i1
  br i1 %21, label %22, label %27

22:                                               ; preds = %4
  call void @llvm.memcpy.p0.p0.i64(ptr align 4 %9, ptr align 4 %5, i64 8, i1 false), !tbaa.struct !76
  call void @llvm.memcpy.p0.p0.i64(ptr align 4 %10, ptr align 4 %6, i64 8, i1 false), !tbaa.struct !76
  %23 = load i32, ptr %8, align 4, !tbaa !48
  call void @_ZN4Luau7CodeGen3X6410OperandX64C2Ei(ptr noundef nonnull align 4 dereferenceable(8) %11, i32 noundef %23)
  %24 = load i64, ptr %9, align 4
  %25 = load i64, ptr %10, align 4
  %26 = load i64, ptr %11, align 4
  call void @_ZN4Luau7CodeGen3X6418AssemblyBuilderX643logEPKcNS1_10OperandX64ES5_S5_(ptr noundef nonnull align 8 dereferenceable(252) %18, ptr noundef @.str.20, i64 %24, i64 %25, i64 %26)
  br label %27

27:                                               ; preds = %22, %4
  %28 = getelementptr inbounds nuw %"struct.Luau::CodeGen::X64::OperandX64", ptr %5, i32 0, i32 2
  call void @llvm.memcpy.p0.p0.i64(ptr align 1 %12, ptr align 2 %28, i64 1, i1 false), !tbaa.struct !86
  call void @llvm.memcpy.p0.p0.i64(ptr align 4 %13, ptr align 4 %6, i64 8, i1 false), !tbaa.struct !76
  %29 = getelementptr inbounds nuw %"struct.Luau::CodeGen::X64::RegisterX64", ptr %12, i32 0, i32 0
  %30 = load i8, ptr %29, align 1
  %31 = load i64, ptr %13, align 4
  call void @_ZN4Luau7CodeGen3X6418AssemblyBuilderX648placeRexENS1_11RegisterX64ENS1_10OperandX64E(ptr noundef nonnull align 8 dereferenceable(252) %18, i8 %30, i64 %31)
  %32 = load i32, ptr %8, align 4, !tbaa !48
  %33 = trunc i32 %32 to i8
  %34 = sext i8 %33 to i32
  %35 = load i32, ptr %8, align 4, !tbaa !48
  %36 = icmp eq i32 %34, %35
  br i1 %36, label %37, label %41

37:                                               ; preds = %27
  call void @_ZN4Luau7CodeGen3X6418AssemblyBuilderX645placeEh(ptr noundef nonnull align 8 dereferenceable(252) %18, i8 noundef zeroext 107)
  call void @llvm.memcpy.p0.p0.i64(ptr align 4 %14, ptr align 4 %5, i64 8, i1 false), !tbaa.struct !76
  call void @llvm.memcpy.p0.p0.i64(ptr align 4 %15, ptr align 4 %6, i64 8, i1 false), !tbaa.struct !76
  %38 = load i64, ptr %14, align 4
  %39 = load i64, ptr %15, align 4
  call void @_ZN4Luau7CodeGen3X6418AssemblyBuilderX6420placeRegAndModRegMemENS1_10OperandX64ES3_i(ptr noundef nonnull align 8 dereferenceable(252) %18, i64 %38, i64 %39, i32 noundef 1)
  %40 = load i32, ptr %8, align 4, !tbaa !48
  call void @_ZN4Luau7CodeGen3X6418AssemblyBuilderX649placeImm8Ei(ptr noundef nonnull align 8 dereferenceable(252) %18, i32 noundef %40)
  br label %45

41:                                               ; preds = %27
  call void @_ZN4Luau7CodeGen3X6418AssemblyBuilderX645placeEh(ptr noundef nonnull align 8 dereferenceable(252) %18, i8 noundef zeroext 105)
  call void @llvm.memcpy.p0.p0.i64(ptr align 4 %16, ptr align 4 %5, i64 8, i1 false), !tbaa.struct !76
  call void @llvm.memcpy.p0.p0.i64(ptr align 4 %17, ptr align 4 %6, i64 8, i1 false), !tbaa.struct !76
  %42 = load i64, ptr %16, align 4
  %43 = load i64, ptr %17, align 4
  call void @_ZN4Luau7CodeGen3X6418AssemblyBuilderX6420placeRegAndModRegMemENS1_10OperandX64ES3_i(ptr noundef nonnull align 8 dereferenceable(252) %18, i64 %42, i64 %43, i32 noundef 4)
  %44 = load i32, ptr %8, align 4, !tbaa !48
  call void @_ZN4Luau7CodeGen3X6418AssemblyBuilderX6410placeImm32Ei(ptr noundef nonnull align 8 dereferenceable(252) %18, i32 noundef %44)
  br label %45

45:                                               ; preds = %41, %37
  call void @_ZN4Luau7CodeGen3X6418AssemblyBuilderX646commitEv(ptr noundef nonnull align 8 dereferenceable(252) %18)
  ret void
}