; Function Attrs: mustprogress uwtable
define dso_local void @_ZN4Luau7CodeGen3X6418AssemblyBuilderX644imulENS1_10OperandX64ES3_i(ptr noundef nonnull align 8 dereferenceable(252) %0, i64 %1, i64 %2, i32 noundef %3) local_unnamed_addr #0 align 2 {
  %.sroa.4.0.extract.shift = lshr i64 %1, 16
  %.sroa.4.0.extract.trunc = trunc i64 %.sroa.4.0.extract.shift to i8
  %5 = getelementptr inbounds nuw i8, ptr %0, i64 80
  %6 = load i8, ptr %5, align 8, !tbaa !14, !range !61, !noundef !62
  %7 = trunc nuw i8 %6 to i1
  br i1 %7, label %8, label %9

8:                                                ; preds = %4
  %.sroa.5.0.insert.ext = zext i32 %3 to i64
  %.sroa.5.0.insert.shift = shl nuw i64 %.sroa.5.0.insert.ext, 32
  %.sroa.0.0.insert.insert = or disjoint i64 %.sroa.5.0.insert.shift, 276856834
  tail call void @_ZN4Luau7CodeGen3X6418AssemblyBuilderX643logEPKcNS1_10OperandX64ES5_S5_(ptr noundef nonnull align 8 dereferenceable(252) %0, ptr noundef nonnull @.str.20, i64 %1, i64 %2, i64 %.sroa.0.0.insert.insert)
  br label %9

9:                                                ; preds = %8, %4
  %10 = and i8 %.sroa.4.0.extract.trunc, 7
  %11 = icmp eq i8 %10, 4
  %12 = icmp eq i8 %10, 1
  %13 = icmp ugt i8 %.sroa.4.0.extract.trunc, 31
  %14 = and i1 %13, %12
  %15 = or i1 %11, %14
  %16 = select i1 %15, i32 8, i32 0
  %17 = and i64 %2, 255
  %18 = icmp eq i64 %17, 2
  br i1 %18, label %19, label %24

19:                                               ; preds = %9
  %20 = lshr i8 %.sroa.4.0.extract.trunc, 6
  %21 = and i8 %20, 1
  %22 = trunc nuw nsw i32 %16 to i8
  %23 = or disjoint i8 %21, %22
  br label %37

24:                                               ; preds = %9
  %25 = lshr i8 %.sroa.4.0.extract.trunc, 4
  %26 = and i8 %25, 4
  %27 = zext nneg i8 %26 to i32
  %28 = trunc i64 %2 to i32
  %29 = lshr i32 %28, 13
  %30 = and i32 %29, 2
  %31 = lshr i32 %28, 22
  %32 = and i32 %31, 1
  %33 = or disjoint i32 %32, %30
  %34 = or disjoint i32 %33, %27
  %35 = or disjoint i32 %34, %16
  %36 = trunc nuw nsw i32 %35 to i8
  br label %37

37:                                               ; preds = %24, %19
  %.0.i = phi i8 [ %23, %19 ], [ %36, %24 ]
  %.not.i = icmp eq i8 %.0.i, 0
  br i1 %.not.i, label %_ZN4Luau7CodeGen3X6418AssemblyBuilderX648placeRexENS1_11RegisterX64ENS1_10OperandX64E.exit, label %38

38:                                               ; preds = %37
  %39 = or i8 %.0.i, 64
  %40 = getelementptr inbounds nuw i8, ptr %0, i64 232
  %41 = load ptr, ptr %40, align 8, !tbaa !51
  %42 = getelementptr inbounds nuw i8, ptr %41, i64 1
  store ptr %42, ptr %40, align 8, !tbaa !51
  store i8 %39, ptr %41, align 1, !tbaa !13
  br label %_ZN4Luau7CodeGen3X6418AssemblyBuilderX648placeRexENS1_11RegisterX64ENS1_10OperandX64E.exit

_ZN4Luau7CodeGen3X6418AssemblyBuilderX648placeRexENS1_11RegisterX64ENS1_10OperandX64E.exit: ; preds = %37, %38
  %43 = add i32 %3, 128
  %44 = icmp ult i32 %43, 256
  %45 = getelementptr inbounds nuw i8, ptr %0, i64 232
  %46 = load ptr, ptr %45, align 8, !tbaa !51
  %47 = getelementptr inbounds nuw i8, ptr %46, i64 1
  store ptr %47, ptr %45, align 8, !tbaa !51
  %sum.shift.i = lshr i64 %1, 19
  %48 = trunc i64 %sum.shift.i to i8
  %49 = and i8 %48, 31
  br i1 %44, label %50, label %54

50:                                               ; preds = %_ZN4Luau7CodeGen3X6418AssemblyBuilderX648placeRexENS1_11RegisterX64ENS1_10OperandX64E.exit
  store i8 107, ptr %46, align 1, !tbaa !13
  tail call void @_ZN4Luau7CodeGen3X6418AssemblyBuilderX6414placeModRegMemENS1_10OperandX64Ehi(ptr noundef nonnull align 8 dereferenceable(252) %0, i64 %2, i8 noundef zeroext %49, i32 noundef 1)
  %51 = trunc i32 %3 to i8
  %52 = load ptr, ptr %45, align 8, !tbaa !51
  %53 = getelementptr inbounds nuw i8, ptr %52, i64 1
  store ptr %53, ptr %45, align 8, !tbaa !51
  store i8 %51, ptr %52, align 1, !tbaa !13
  %.pre = load ptr, ptr %45, align 8, !tbaa !51
  br label %57

54:                                               ; preds = %_ZN4Luau7CodeGen3X6418AssemblyBuilderX648placeRexENS1_11RegisterX64ENS1_10OperandX64E.exit
  store i8 105, ptr %46, align 1, !tbaa !13
  tail call void @_ZN4Luau7CodeGen3X6418AssemblyBuilderX6414placeModRegMemENS1_10OperandX64Ehi(ptr noundef nonnull align 8 dereferenceable(252) %0, i64 %2, i8 noundef zeroext %49, i32 noundef 4)
  %55 = load ptr, ptr %45, align 8, !tbaa !51
  store i32 %3, ptr %55, align 1
  %56 = getelementptr inbounds nuw i8, ptr %55, i64 4
  store ptr %56, ptr %45, align 8, !tbaa !51
  br label %57

57:                                               ; preds = %54, %50
  %58 = phi ptr [ %56, %54 ], [ %.pre, %50 ]
  %59 = getelementptr inbounds nuw i8, ptr %0, i64 248
  %60 = load i32, ptr %59, align 8, !tbaa !63
  %61 = add i32 %60, 1
  store i32 %61, ptr %59, align 8, !tbaa !63
  %62 = getelementptr inbounds nuw i8, ptr %0, i64 240
  %63 = load ptr, ptr %62, align 8, !tbaa !52
  %64 = ptrtoint ptr %63 to i64
  %65 = ptrtoint ptr %58 to i64
  %66 = sub i64 %64, %65
  %67 = and i64 %66, 4294967280
  %68 = icmp eq i64 %67, 0
  br i1 %68, label %69, label %_ZN4Luau7CodeGen3X6418AssemblyBuilderX646commitEv.exit

69:                                               ; preds = %57
  tail call void @_ZN4Luau7CodeGen3X6418AssemblyBuilderX646extendEv(ptr noundef nonnull align 8 dereferenceable(252) %0)
  br label %_ZN4Luau7CodeGen3X6418AssemblyBuilderX646commitEv.exit

_ZN4Luau7CodeGen3X6418AssemblyBuilderX646commitEv.exit: ; preds = %57, %69
  ret void
}